target datalayout = "e-m:e-p270:32:32-p271:32:32-p272:64:64-i64:64-i128:128-f80:128-n8:16:32:64-S128"
target triple = "x86_64-pc-linux-gnu"

%struct.RFile = type { %struct.RBasic, ptr }
%struct.RBasic = type { i64, i64 }
%struct.rb_io = type { i64, ptr, i32, i32, i32, i32, i64, ptr, %struct.rb_io_internal_buffer, %struct.rb_io_internal_buffer, i64, %struct.rb_io_encoding, ptr, %struct.rb_io_internal_buffer, ptr, i64, i32, i32, i64, i64, i64 }
%struct.rb_io_encoding = type { ptr, ptr, i32, i64 }
%struct.rb_io_internal_buffer = type <{ ptr, i32, i32, i32 }>
%struct.ftruncate_arg = type { i32, i64 }

@rb_eIOError = external global i64, align 8
@.str.140 = private unnamed_addr constant [23 x i8] c"not opened for writing\00", align 1
@__func__.rb_file_truncate = private unnamed_addr constant [17 x i8] c"rb_file_truncate\00", align 1

; Function Attrs: inlinehint nounwind sspstrong willreturn memory(none) uwtable
define internal i64 @rbimpl_fix2long_by_idiv(i64 noundef %0) #10 {
  %2 = alloca i64, align 8
  %3 = alloca i64, align 8
  %4 = alloca i64, align 8
  %5 = alloca i64, align 8
  store i64 %0, ptr %2, align 8, !tbaa !7
  call void @llvm.lifetime.start.p0(i64 8, ptr %3) #24
  %6 = load i64, ptr %2, align 8, !tbaa !7
  %7 = sub i64 %6, 1
  store i64 %7, ptr %3, align 8, !tbaa !7
  call void @llvm.lifetime.start.p0(i64 8, ptr %4) #24
  %8 = load i64, ptr %3, align 8, !tbaa !7
  %9 = sdiv i64 %8, 2
  store i64 %9, ptr %4, align 8, !tbaa !7
  call void @llvm.lifetime.start.p0(i64 8, ptr %5) #24
  %10 = load i64, ptr %4, align 8, !tbaa !7
  store i64 %10, ptr %5, align 8, !tbaa !7
  %11 = load i64, ptr %5, align 8, !tbaa !7
  call void @llvm.lifetime.end.p0(i64 8, ptr %5) #24
  call void @llvm.lifetime.end.p0(i64 8, ptr %4) #24
  call void @llvm.lifetime.end.p0(i64 8, ptr %3) #24
  ret i64 %11
}

; Function Attrs: inlinehint nounwind sspstrong willreturn memory(none) uwtable
define internal i64 @rbimpl_fix2long_by_shift(i64 noundef %0) #10 {
  %2 = alloca i64, align 8
  %3 = alloca i64, align 8
  %4 = alloca i64, align 8
  %5 = alloca i64, align 8
  store i64 %0, ptr %2, align 8, !tbaa !7
  call void @llvm.lifetime.start.p0(i64 8, ptr %3) #24
  %6 = load i64, ptr %2, align 8, !tbaa !7
  store i64 %6, ptr %3, align 8, !tbaa !7
  call void @llvm.lifetime.start.p0(i64 8, ptr %4) #24
  %7 = load i64, ptr %3, align 8, !tbaa !7
  %8 = ashr i64 %7, 1
  store i64 %8, ptr %4, align 8, !tbaa !7
  call void @llvm.lifetime.start.p0(i64 8, ptr %5) #24
  %9 = load i64, ptr %4, align 8, !tbaa !7
  store i64 %9, ptr %5, align 8, !tbaa !7
  %10 = load i64, ptr %5, align 8, !tbaa !7
  call void @llvm.lifetime.end.p0(i64 8, ptr %5) #24
  call void @llvm.lifetime.end.p0(i64 8, ptr %4) #24
  call void @llvm.lifetime.end.p0(i64 8, ptr %3) #24
  ret i64 %10
}

; Function Attrs: inlinehint nounwind sspstrong willreturn memory(none) uwtable
define internal zeroext i1 @rbimpl_right_shift_is_arithmetic_p() #10 {
  ret i1 true
}

; Function Attrs: inlinehint nounwind sspstrong willreturn memory(none) uwtable
define internal i64 @rb_fix2long(i64 noundef %0) #10 {
  %2 = alloca i64, align 8
  %3 = alloca i64, align 8
  store i64 %0, ptr %3, align 8, !tbaa !7
  %4 = call zeroext i1 @rbimpl_right_shift_is_arithmetic_p() #27
  br i1 %4, label %5, label %8

5:                                                ; preds = %1
  %6 = load i64, ptr %3, align 8, !tbaa !7
  %7 = call i64 @rbimpl_fix2long_by_shift(i64 noundef %6) #27
  store i64 %7, ptr %2, align 8
  br label %11

8:                                                ; preds = %1
  %9 = load i64, ptr %3, align 8, !tbaa !7
  %10 = call i64 @rbimpl_fix2long_by_idiv(i64 noundef %9) #27
  store i64 %10, ptr %2, align 8
  br label %11

11:                                               ; preds = %8, %5
  %12 = load i64, ptr %2, align 8
  ret i64 %12
}

; Function Attrs: inlinehint nounwind sspstrong willreturn memory(none) uwtable
define internal zeroext i1 @RB_FIXNUM_P(i64 noundef %0) #10 {
  %2 = alloca i64, align 8
  store i64 %0, ptr %2, align 8, !tbaa !7
  %3 = load i64, ptr %2, align 8, !tbaa !7
  %4 = and i64 %3, 1
  %5 = icmp ne i64 %4, 0
  ret i1 %5
}

; Function Attrs: inlinehint nounwind sspstrong uwtable
define internal i64 @rb_num2long_inline(i64 noundef %0) #8 {
  %2 = alloca i64, align 8
  %3 = alloca i64, align 8
  store i64 %0, ptr %3, align 8, !tbaa !7
  %4 = load i64, ptr %3, align 8, !tbaa !7
  %5 = call zeroext i1 @RB_FIXNUM_P(i64 noundef %4) #27
  br i1 %5, label %6, label %9

6:                                                ; preds = %1
  %7 = load i64, ptr %3, align 8, !tbaa !7
  %8 = call i64 @rb_fix2long(i64 noundef %7) #27
  store i64 %8, ptr %2, align 8
  br label %12

9:                                                ; preds = %1
  %10 = load i64, ptr %3, align 8, !tbaa !7
  %11 = call i64 @rb_num2long(i64 noundef %10)
  store i64 %11, ptr %2, align 8
  br label %12

12:                                               ; preds = %9, %6
  %13 = load i64, ptr %2, align 8
  ret i64 %13
}

; Function Attrs: nounwind sspstrong uwtable
define internal i64 @rb_file_truncate(i64 noundef %0, i64 noundef %1) #0 {
  %3 = alloca i64, align 8
  %4 = alloca i64, align 8
  %5 = alloca ptr, align 8
  %6 = alloca %struct.ftruncate_arg, align 8
  %7 = alloca i32, align 4
  store i64 %0, ptr %3, align 8, !tbaa !7
  store i64 %1, ptr %4, align 8, !tbaa !7
  call void @llvm.lifetime.start.p0(i64 8, ptr %5) #24
  call void @llvm.lifetime.start.p0(i64 16, ptr %6) #24
  %8 = load i64, ptr %4, align 8, !tbaa !7
  %9 = call i64 @rb_num2long_inline(i64 noundef %8)
  %10 = getelementptr inbounds nuw %struct.ftruncate_arg, ptr %6, i32 0, i32 1
  store i64 %9, ptr %10, align 8, !tbaa !146
  %11 = load i64, ptr %3, align 8, !tbaa !7
  %12 = call i64 @rb_io_taint_check(i64 noundef %11)
  %13 = inttoptr i64 %12 to ptr
  %14 = getelementptr inbounds nuw %struct.RFile, ptr %13, i32 0, i32 1
  %15 = load ptr, ptr %14, align 8, !tbaa !34
  store ptr %15, ptr %5, align 8, !tbaa !38
  call void @rb_io_check_closed(ptr noundef %15)
  %16 = load ptr, ptr %5, align 8, !tbaa !38
  %17 = getelementptr inbounds nuw %struct.rb_io, ptr %16, i32 0, i32 3
  %18 = load i32, ptr %17, align 4, !tbaa !53
  %19 = and i32 %18, 2
  %20 = icmp ne i32 %19, 0
  br i1 %20, label %23, label %21

21:                                               ; preds = %2
  %22 = load i64, ptr @rb_eIOError, align 8, !tbaa !7
  call void (i64, ptr, ...) @rb_raise(i64 noundef %22, ptr noundef @.str.140) #28
  unreachable

23:                                               ; preds = %2
  %24 = load i64, ptr %3, align 8, !tbaa !7
  %25 = call i64 @rb_io_flush_raw(i64 noundef %24, i32 noundef 0)
  %26 = load ptr, ptr %5, align 8, !tbaa !38
  %27 = getelementptr inbounds nuw %struct.rb_io, ptr %26, i32 0, i32 2
  %28 = load i32, ptr %27, align 8, !tbaa !59
  %29 = getelementptr inbounds nuw %struct.ftruncate_arg, ptr %6, i32 0, i32 0
  store i32 %28, ptr %29, align 8, !tbaa !148
  %30 = load ptr, ptr %5, align 8, !tbaa !38
  %31 = call i64 @rb_io_blocking_region(ptr noundef %30, ptr noundef @nogvl_ftruncate, ptr noundef %6)
  %32 = trunc i64 %31 to i32
  %33 = icmp slt i32 %32, 0
  br i1 %33, label %34, label %44

34:                                               ; preds = %23
  br label %35

35:                                               ; preds = %34
  call void @llvm.lifetime.start.p0(i64 4, ptr %7) #24
  %36 = call ptr @rb_errno_ptr()
  %37 = load i32, ptr %36, align 4, !tbaa !11
  store i32 %37, ptr %7, align 4, !tbaa !11
  %38 = load i32, ptr %7, align 4, !tbaa !11
  %39 = load ptr, ptr %5, align 8, !tbaa !38
  %40 = getelementptr inbounds nuw %struct.rb_io, ptr %39, i32 0, i32 6
  %41 = load i64, ptr %40, align 8, !tbaa !60
  call void @rb_syserr_fail_path_in(ptr noundef @__func__.rb_file_truncate, i32 noundef %38, i64 noundef %41) #28
  unreachable

42:                                               ; No predecessors!
  br label %43

43:                                               ; preds = %42
  br label %44

44:                                               ; preds = %43, %23
  call void @llvm.lifetime.end.p0(i64 16, ptr %6) #24
  call void @llvm.lifetime.end.p0(i64 8, ptr %5) #24
  ret i64 1
}