; Function Attrs: nounwind sspstrong uwtable
define internal noundef i64 @rb_file_truncate(i64 noundef %0, i64 noundef %1) #0 {
  %3 = alloca %struct.ftruncate_arg, align 8
  call void @llvm.lifetime.start.p0(i64 16, ptr nonnull %3) #22
  %4 = and i64 %1, 1
  %.not.i = icmp eq i64 %4, 0
  br i1 %.not.i, label %7, label %5

5:                                                ; preds = %2
  %6 = ashr i64 %1, 1
  br label %rb_num2long_inline.exit

7:                                                ; preds = %2
  %8 = tail call i64 @rb_num2long(i64 noundef %1) #22
  br label %rb_num2long_inline.exit

rb_num2long_inline.exit:                          ; preds = %5, %7
  %.0.i = phi i64 [ %6, %5 ], [ %8, %7 ]
  %9 = getelementptr inbounds nuw i8, ptr %3, i64 8
  store i64 %.0.i, ptr %9, align 8, !tbaa !270
  %10 = tail call i64 @rb_io_taint_check(i64 noundef %0) #22
  %11 = inttoptr i64 %10 to ptr
  %12 = getelementptr inbounds nuw i8, ptr %11, i64 16
  %13 = load ptr, ptr %12, align 8, !tbaa !33
  tail call void @rb_io_check_closed(ptr noundef %13) #22
  %14 = getelementptr inbounds nuw i8, ptr %13, i64 20
  %15 = load i32, ptr %14, align 4, !tbaa !73
  %16 = and i32 %15, 2
  %.not = icmp eq i32 %16, 0
  br i1 %.not, label %17, label %19

17:                                               ; preds = %rb_num2long_inline.exit
  %18 = load i64, ptr @rb_eIOError, align 8, !tbaa !12
  tail call void (i64, ptr, ...) @rb_raise(i64 noundef %18, ptr noundef nonnull @.str.140) #24
  unreachable

19:                                               ; preds = %rb_num2long_inline.exit
  %20 = tail call i64 @rb_io_flush_raw(i64 noundef %0, i32 noundef 0) #22
  %21 = getelementptr inbounds nuw i8, ptr %13, i64 16
  %22 = load i32, ptr %21, align 8, !tbaa !36
  store i32 %22, ptr %3, align 8, !tbaa !272
  %23 = call i64 @rb_io_blocking_region(ptr noundef nonnull %13, ptr noundef nonnull @nogvl_ftruncate, ptr noundef nonnull %3) #22
  %24 = and i64 %23, 2147483648
  %.not7 = icmp eq i64 %24, 0
  br i1 %.not7, label %30, label %25

25:                                               ; preds = %19
  %26 = call ptr @rb_errno_ptr() #22
  %27 = load i32, ptr %26, align 4, !tbaa !26
  %28 = getelementptr inbounds nuw i8, ptr %13, i64 32
  %29 = load i64, ptr %28, align 8, !tbaa !74
  call void @rb_syserr_fail_path_in(ptr noundef nonnull @__func__.rb_file_truncate, i32 noundef %27, i64 noundef %29) #24
  unreachable

30:                                               ; preds = %19
  call void @llvm.lifetime.end.p0(i64 16, ptr nonnull %3) #22
  ret i64 1
}